; Function Attrs: mustprogress nofree norecurse nounwind willreturn memory(readwrite, inaccessiblemem: none) uwtable
define hidden zeroext i1 @mi_heap_contains_block(ptr noundef readnone %0, ptr noundef %1) local_unnamed_addr #4 {
  %3 = icmp ne ptr %0, null
  %4 = icmp ne ptr %0, @_mi_heap_empty
  %or.cond = and i1 %3, %4
  br i1 %or.cond, label %5, label %33

5:                                                ; preds = %2
  %6 = icmp eq ptr %1, null
  br i1 %6, label %mi_heap_of_block.exit, label %7

7:                                                ; preds = %5
  %8 = ptrtoint ptr %1 to i64
  %9 = add i64 %8, -1
  %10 = and i64 %9, -33554432
  %11 = inttoptr i64 %10 to ptr
  %12 = icmp slt i64 %9, 33554432
  %13 = select i1 %12, ptr null, ptr %11
  %14 = ptrtoint ptr %13 to i64
  %15 = load i64, ptr getelementptr inbounds nuw (i8, ptr @_mi_heap_main, i64 32), align 8, !tbaa !43
  %16 = xor i64 %15, %14
  %17 = getelementptr inbounds nuw i8, ptr %11, i64 224
  %18 = load i64, ptr %17, align 32, !tbaa !52
  %.not.i = icmp eq i64 %16, %18
  br i1 %.not.i, label %19, label %mi_heap_of_block.exit, !prof !57

19:                                               ; preds = %7
  %20 = sub i64 %8, %14
  %21 = lshr i64 %20, 16
  %22 = getelementptr inbounds nuw i8, ptr %13, i64 288
  %23 = getelementptr inbounds nuw [513 x %struct.mi_page_s], ptr %22, i64 0, i64 %21
  %24 = getelementptr inbounds nuw i8, ptr %23, i64 4
  %25 = load i32, ptr %24, align 4, !tbaa !58
  %26 = zext i32 %25 to i64
  %27 = sub nsw i64 0, %26
  %28 = getelementptr inbounds i8, ptr %23, i64 %27
  %29 = getelementptr inbounds nuw i8, ptr %28, i64 64
  %30 = load atomic i64, ptr %29 monotonic, align 8
  %31 = inttoptr i64 %30 to ptr
  br label %mi_heap_of_block.exit

mi_heap_of_block.exit:                            ; preds = %5, %7, %19
  %.0.i = phi ptr [ null, %5 ], [ %31, %19 ], [ null, %7 ]
  %32 = icmp eq ptr %0, %.0.i
  br label %33

33:                                               ; preds = %2, %mi_heap_of_block.exit
  %.0 = phi i1 [ %32, %mi_heap_of_block.exit ], [ false, %2 ]
  ret i1 %.0
}